target datalayout = "e-m:e-p270:32:32-p271:32:32-p272:64:64-i64:64-i128:128-f80:128-n8:16:32:64-S128"
target triple = "x86_64-pc-linux-gnu"

%"class.std::basic_string_view" = type { i64, ptr }

; Function Attrs: mustprogress nounwind uwtable
define linkonce_odr dso_local noundef nonnull align 1 dereferenceable(1) ptr @_ZNKSt17basic_string_viewIcSt11char_traitsIcEEixEm(ptr noundef nonnull align 8 dereferenceable(16) %0, i64 noundef %1) #1 comdat align 2 {
  %3 = alloca ptr, align 8
  %4 = alloca i64, align 8
  store ptr %0, ptr %3, align 8, !tbaa !10
  store i64 %1, ptr %4, align 8, !tbaa !16
  %5 = load ptr, ptr %3, align 8
  br label %6

6:                                                ; preds = %2
  br label %7

7:                                                ; preds = %6
  br label %8

8:                                                ; preds = %7
  %9 = getelementptr inbounds nuw %"class.std::basic_string_view", ptr %5, i32 0, i32 1
  %10 = load ptr, ptr %9, align 8, !tbaa !17
  %11 = load i64, ptr %4, align 8, !tbaa !16
  %12 = getelementptr inbounds nuw i8, ptr %10, i64 %11
  ret ptr %12
}

; Function Attrs: mustprogress nounwind uwtable
define linkonce_odr dso_local noundef i64 @_ZNKSt17basic_string_viewIcSt11char_traitsIcEE4sizeEv(ptr noundef nonnull align 8 dereferenceable(16) %0) #1 comdat align 2 {
  %2 = alloca ptr, align 8
  store ptr %0, ptr %2, align 8, !tbaa !10
  %3 = load ptr, ptr %2, align 8
  %4 = getelementptr inbounds nuw %"class.std::basic_string_view", ptr %3, i32 0, i32 0
  %5 = load i64, ptr %4, align 8, !tbaa !12
  ret i64 %5
}

; Function Attrs: mustprogress nounwind uwtable
define dso_local noundef zeroext i1 @_ZN7cmValue14IsInternallyOnESt17basic_string_viewIcSt11char_traitsIcEE(i64 %0, ptr %1) #1 align 2 {
  %3 = alloca %"class.std::basic_string_view", align 8
  %4 = getelementptr inbounds nuw { i64, ptr }, ptr %3, i32 0, i32 0
  store i64 %0, ptr %4, align 8
  %5 = getelementptr inbounds nuw { i64, ptr }, ptr %3, i32 0, i32 1
  store ptr %1, ptr %5, align 8
  %6 = call noundef i64 @_ZNKSt17basic_string_viewIcSt11char_traitsIcEE4sizeEv(ptr noundef nonnull align 8 dereferenceable(16) %3) #2
  %7 = icmp eq i64 %6, 4
  br i1 %7, label %8, label %45

8:                                                ; preds = %2
  %9 = call noundef nonnull align 1 dereferenceable(1) ptr @_ZNKSt17basic_string_viewIcSt11char_traitsIcEEixEm(ptr noundef nonnull align 8 dereferenceable(16) %3, i64 noundef 0) #2
  %10 = load i8, ptr %9, align 1, !tbaa !9
  %11 = sext i8 %10 to i32
  %12 = icmp eq i32 %11, 73
  br i1 %12, label %18, label %13

13:                                               ; preds = %8
  %14 = call noundef nonnull align 1 dereferenceable(1) ptr @_ZNKSt17basic_string_viewIcSt11char_traitsIcEEixEm(ptr noundef nonnull align 8 dereferenceable(16) %3, i64 noundef 0) #2
  %15 = load i8, ptr %14, align 1, !tbaa !9
  %16 = sext i8 %15 to i32
  %17 = icmp eq i32 %16, 105
  br i1 %17, label %18, label %45

18:                                               ; preds = %13, %8
  %19 = call noundef nonnull align 1 dereferenceable(1) ptr @_ZNKSt17basic_string_viewIcSt11char_traitsIcEEixEm(ptr noundef nonnull align 8 dereferenceable(16) %3, i64 noundef 1) #2
  %20 = load i8, ptr %19, align 1, !tbaa !9
  %21 = sext i8 %20 to i32
  %22 = icmp eq i32 %21, 95
  br i1 %22, label %23, label %45

23:                                               ; preds = %18
  %24 = call noundef nonnull align 1 dereferenceable(1) ptr @_ZNKSt17basic_string_viewIcSt11char_traitsIcEEixEm(ptr noundef nonnull align 8 dereferenceable(16) %3, i64 noundef 2) #2
  %25 = load i8, ptr %24, align 1, !tbaa !9
  %26 = sext i8 %25 to i32
  %27 = icmp eq i32 %26, 79
  br i1 %27, label %33, label %28

28:                                               ; preds = %23
  %29 = call noundef nonnull align 1 dereferenceable(1) ptr @_ZNKSt17basic_string_viewIcSt11char_traitsIcEEixEm(ptr noundef nonnull align 8 dereferenceable(16) %3, i64 noundef 2) #2
  %30 = load i8, ptr %29, align 1, !tbaa !9
  %31 = sext i8 %30 to i32
  %32 = icmp eq i32 %31, 111
  br i1 %32, label %33, label %45

33:                                               ; preds = %28, %23
  %34 = call noundef nonnull align 1 dereferenceable(1) ptr @_ZNKSt17basic_string_viewIcSt11char_traitsIcEEixEm(ptr noundef nonnull align 8 dereferenceable(16) %3, i64 noundef 3) #2
  %35 = load i8, ptr %34, align 1, !tbaa !9
  %36 = sext i8 %35 to i32
  %37 = icmp eq i32 %36, 78
  br i1 %37, label %43, label %38

38:                                               ; preds = %33
  %39 = call noundef nonnull align 1 dereferenceable(1) ptr @_ZNKSt17basic_string_viewIcSt11char_traitsIcEEixEm(ptr noundef nonnull align 8 dereferenceable(16) %3, i64 noundef 3) #2
  %40 = load i8, ptr %39, align 1, !tbaa !9
  %41 = sext i8 %40 to i32
  %42 = icmp eq i32 %41, 110
  br label %43

43:                                               ; preds = %38, %33
  %44 = phi i1 [ true, %33 ], [ %42, %38 ]
  br label %45

45:                                               ; preds = %43, %28, %18, %13, %2
  %46 = phi i1 [ false, %28 ], [ false, %18 ], [ false, %13 ], [ false, %2 ], [ %44, %43 ]
  ret i1 %46
}