; Function Attrs: mustprogress nofree norecurse nosync nounwind willreturn memory(argmem: read) uwtable
define dso_local noundef zeroext i1 @_ZN7cmValue14IsInternallyOnESt17basic_string_viewIcSt11char_traitsIcEE(i64 %0, ptr readonly captures(none) %1) local_unnamed_addr #2 align 2 {
  %3 = icmp eq i64 %0, 4
  br i1 %3, label %4, label %17

4:                                                ; preds = %2
  %5 = load i8, ptr %1, align 1, !tbaa !4
  switch i8 %5, label %17 [
    i8 73, label %6
    i8 105, label %6
  ]

6:                                                ; preds = %4, %4
  %7 = getelementptr inbounds nuw i8, ptr %1, i64 1
  %8 = load i8, ptr %7, align 1, !tbaa !4
  %9 = icmp eq i8 %8, 95
  br i1 %9, label %10, label %17

10:                                               ; preds = %6
  %11 = getelementptr inbounds nuw i8, ptr %1, i64 2
  %12 = load i8, ptr %11, align 1, !tbaa !4
  switch i8 %12, label %17 [
    i8 79, label %13
    i8 111, label %13
  ]

13:                                               ; preds = %10, %10
  %14 = getelementptr inbounds nuw i8, ptr %1, i64 3
  %15 = load i8, ptr %14, align 1, !tbaa !4
  %16 = and i8 %15, -33
  %spec.select = icmp eq i8 %16, 78
  br label %17

17:                                               ; preds = %13, %10, %4, %6, %2
  %18 = phi i1 [ false, %6 ], [ false, %2 ], [ false, %4 ], [ false, %10 ], [ %spec.select, %13 ]
  ret i1 %18
}